; Function Attrs: mustprogress uwtable
define void @_ZN6google8protobuf8internal23SerializeNotImplementedEi(i32 noundef %0) local_unnamed_addr #4 personality ptr @__gxx_personality_v0 {
  %2 = alloca %"class.google::protobuf::internal::LogMessage", align 8
  %3 = alloca %"class.google::protobuf::internal::LogFinisher", align 1
  call void @llvm.lifetime.start.p0(i64 56, ptr nonnull %2) #17
  call void @_ZN6google8protobuf8internal10LogMessageC1ENS0_8LogLevelEPKci(ptr noundef nonnull align 8 dereferenceable(56) %2, i32 noundef 3, ptr noundef nonnull @.str, i32 noundef 534)
  %4 = invoke noundef nonnull align 8 dereferenceable(56) ptr @_ZN6google8protobuf8internal10LogMessagelsEPKc(ptr noundef nonnull align 8 dereferenceable(56) %2, ptr noundef nonnull @.str.1)
          to label %5 unwind label %9

5:                                                ; preds = %1
  %6 = invoke noundef nonnull align 8 dereferenceable(56) ptr @_ZN6google8protobuf8internal10LogMessagelsEi(ptr noundef nonnull align 8 dereferenceable(56) %4, i32 noundef %0)
          to label %7 unwind label %9

7:                                                ; preds = %5
  call void @llvm.lifetime.start.p0(i64 1, ptr nonnull %3) #17
  invoke void @_ZN6google8protobuf8internal11LogFinisheraSERNS1_10LogMessageE(ptr noundef nonnull align 1 dereferenceable(1) %3, ptr noundef nonnull align 8 dereferenceable(56) %6)
          to label %8 unwind label %11

8:                                                ; preds = %7
  call void @llvm.lifetime.end.p0(i64 1, ptr nonnull %3) #17
  call void @_ZN6google8protobuf8internal10LogMessageD1Ev(ptr noundef nonnull align 8 dereferenceable(56) %2) #17
  call void @llvm.lifetime.end.p0(i64 56, ptr nonnull %2) #17
  ret void

9:                                                ; preds = %5, %1
  %10 = landingpad { ptr, i32 }
          cleanup
  br label %13

11:                                               ; preds = %7
  %12 = landingpad { ptr, i32 }
          cleanup
  call void @llvm.lifetime.end.p0(i64 1, ptr nonnull %3) #17
  br label %13

13:                                               ; preds = %11, %9
  %.pn = phi { ptr, i32 } [ %12, %11 ], [ %10, %9 ]
  call void @_ZN6google8protobuf8internal10LogMessageD1Ev(ptr noundef nonnull align 8 dereferenceable(56) %2) #17
  call void @llvm.lifetime.end.p0(i64 56, ptr nonnull %2) #17
  resume { ptr, i32 } %.pn
}